; Function Attrs: mustprogress uwtable
define noundef nonnull align 8 dereferenceable(104) ptr @_ZN32pxrInternal_v0_24__pxrReserved__21Usd_UsdzResolverCache11GetInstanceEv() local_unnamed_addr #0 align 2 personality ptr @__gxx_personality_v0 {
  %1 = load atomic i8, ptr @_ZGVZN32pxrInternal_v0_24__pxrReserved__21Usd_UsdzResolverCache11GetInstanceEvE5cache acquire, align 8
  %2 = icmp eq i8 %1, 0
  br i1 %2, label %3, label %8, !prof !4

3:                                                ; preds = %0
  %4 = tail call i32 @__cxa_guard_acquire(ptr nonnull @_ZGVZN32pxrInternal_v0_24__pxrReserved__21Usd_UsdzResolverCache11GetInstanceEvE5cache) #13
  %.not = icmp eq i32 %4, 0
  br i1 %.not, label %8, label %5

5:                                                ; preds = %3
  invoke void @_ZN32pxrInternal_v0_24__pxrReserved__21Usd_UsdzResolverCacheC1Ev(ptr noundef nonnull align 8 dereferenceable(104) @_ZZN32pxrInternal_v0_24__pxrReserved__21Usd_UsdzResolverCache11GetInstanceEvE5cache)
          to label %6 unwind label %9

6:                                                ; preds = %5
  %7 = tail call i32 @__cxa_atexit(ptr nonnull @_ZN32pxrInternal_v0_24__pxrReserved__21Usd_UsdzResolverCacheD2Ev, ptr nonnull @_ZZN32pxrInternal_v0_24__pxrReserved__21Usd_UsdzResolverCache11GetInstanceEvE5cache, ptr nonnull @__dso_handle) #13
  tail call void @__cxa_guard_release(ptr nonnull @_ZGVZN32pxrInternal_v0_24__pxrReserved__21Usd_UsdzResolverCache11GetInstanceEvE5cache) #13
  br label %8

8:                                                ; preds = %6, %3, %0
  ret ptr @_ZZN32pxrInternal_v0_24__pxrReserved__21Usd_UsdzResolverCache11GetInstanceEvE5cache

9:                                                ; preds = %5
  %10 = landingpad { ptr, i32 }
          cleanup
  tail call void @__cxa_guard_abort(ptr nonnull @_ZGVZN32pxrInternal_v0_24__pxrReserved__21Usd_UsdzResolverCache11GetInstanceEvE5cache) #13
  resume { ptr, i32 } %10
}